target datalayout = "e-m:e-p270:32:32-p271:32:32-p272:64:64-i64:64-i128:128-f80:128-n8:16:32:64-S128"
target triple = "x86_64-pc-linux-gnu"

%struct.RString = type { %struct.RBasic, i64, %union.anon }
%struct.RBasic = type { i64, i64 }
%union.anon = type { %struct.anon }
%struct.anon = type { ptr, %union.anon.0 }
%union.anon.0 = type { i64 }
%struct.anon.1 = type { [1 x i8] }

; Function Attrs: inlinehint nounwind sspstrong willreturn memory(read) uwtable
define internal i64 @RB_FL_TEST_RAW(i64 noundef %0, i64 noundef %1) #5 {
  %3 = alloca i64, align 8
  %4 = alloca i64, align 8
  store i64 %0, ptr %3, align 8, !tbaa !12
  store i64 %1, ptr %4, align 8, !tbaa !12
  %5 = load i64, ptr %3, align 8, !tbaa !12
  %6 = inttoptr i64 %5 to ptr
  %7 = getelementptr inbounds nuw %struct.RBasic, ptr %6, i32 0, i32 0
  %8 = load i64, ptr %7, align 8, !tbaa !42
  %9 = load i64, ptr %4, align 8, !tbaa !12
  %10 = and i64 %8, %9
  ret i64 %10
}

; Function Attrs: inlinehint nounwind sspstrong willreturn memory(read) uwtable
define internal i64 @RSTRING_LEN(i64 noundef %0) #5 {
  %2 = alloca i64, align 8
  store i64 %0, ptr %2, align 8, !tbaa !12
  %3 = load i64, ptr %2, align 8, !tbaa !12
  %4 = inttoptr i64 %3 to ptr
  %5 = getelementptr inbounds nuw %struct.RString, ptr %4, i32 0, i32 1
  %6 = load i64, ptr %5, align 8, !tbaa !23
  ret i64 %6
}

; Function Attrs: inlinehint nounwind sspstrong willreturn memory(read) uwtable
define internal zeroext i1 @RB_FL_ANY_RAW(i64 noundef %0, i64 noundef %1) #5 {
  %3 = alloca i64, align 8
  %4 = alloca i64, align 8
  store i64 %0, ptr %3, align 8, !tbaa !12
  store i64 %1, ptr %4, align 8, !tbaa !12
  %5 = load i64, ptr %3, align 8, !tbaa !12
  %6 = load i64, ptr %4, align 8, !tbaa !12
  %7 = call i64 @RB_FL_TEST_RAW(i64 noundef %5, i64 noundef %6) #18
  %8 = icmp ne i64 %7, 0
  ret i1 %8
}

; Function Attrs: inlinehint nounwind sspstrong willreturn memory(read, argmem: readwrite) uwtable
define internal void @rbimpl_rstring_getmem(ptr dead_on_unwind noalias writable sret(%struct.RString) align 8 %0, i64 noundef %1) #8 {
  %3 = alloca i64, align 8
  store i64 %1, ptr %3, align 8, !tbaa !12
  %4 = load i64, ptr %3, align 8, !tbaa !12
  %5 = call zeroext i1 @RB_FL_ANY_RAW(i64 noundef %4, i64 noundef 8192) #18
  br i1 %5, label %6, label %9

6:                                                ; preds = %2
  %7 = load i64, ptr %3, align 8, !tbaa !12
  %8 = inttoptr i64 %7 to ptr
  call void @llvm.memcpy.p0.p0.i64(ptr align 8 %0, ptr align 8 %8, i64 40, i1 false), !tbaa.struct !49
  br label %20

9:                                                ; preds = %2
  %10 = load i64, ptr %3, align 8, !tbaa !12
  %11 = call i64 @RSTRING_LEN(i64 noundef %10) #18
  %12 = getelementptr inbounds nuw %struct.RString, ptr %0, i32 0, i32 1
  store i64 %11, ptr %12, align 8, !tbaa !23
  %13 = load i64, ptr %3, align 8, !tbaa !12
  %14 = inttoptr i64 %13 to ptr
  %15 = getelementptr inbounds nuw %struct.RString, ptr %14, i32 0, i32 2
  %16 = getelementptr inbounds nuw %struct.anon.1, ptr %15, i32 0, i32 0
  %17 = getelementptr inbounds [1 x i8], ptr %16, i64 0, i64 0
  %18 = getelementptr inbounds nuw %struct.RString, ptr %0, i32 0, i32 2
  %19 = getelementptr inbounds nuw %struct.anon, ptr %18, i32 0, i32 0
  store ptr %17, ptr %19, align 8, !tbaa !22
  br label %20

20:                                               ; preds = %9, %6
  ret void
}

; Function Attrs: inlinehint nounwind sspstrong uwtable
define internal ptr @RSTRING_PTR(i64 noundef %0) #3 {
  %2 = alloca i64, align 8
  %3 = alloca ptr, align 8
  %4 = alloca %struct.RString, align 8
  store i64 %0, ptr %2, align 8, !tbaa !12
  call void @llvm.lifetime.start.p0(i64 8, ptr %3) #17
  %5 = load i64, ptr %2, align 8, !tbaa !12
  call void @rbimpl_rstring_getmem(ptr dead_on_unwind writable sret(%struct.RString) align 8 %4, i64 noundef %5) #20
  %6 = getelementptr inbounds nuw %struct.RString, ptr %4, i32 0, i32 2
  %7 = getelementptr inbounds nuw %struct.anon, ptr %6, i32 0, i32 0
  %8 = load ptr, ptr %7, align 8, !tbaa !22
  store ptr %8, ptr %3, align 8, !tbaa !7
  %9 = load ptr, ptr %3, align 8, !tbaa !7
  call void @llvm.lifetime.end.p0(i64 8, ptr %3) #17
  ret ptr %9
}

; Function Attrs: nounwind sspstrong uwtable
define internal ptr @resize_buffer(i64 noundef %0, ptr noundef %1, ptr noundef %2, ptr noundef %3, i64 noundef %4, i64 noundef %5) #0 {
  %7 = alloca ptr, align 8
  %8 = alloca i64, align 8
  %9 = alloca ptr, align 8
  %10 = alloca ptr, align 8
  %11 = alloca ptr, align 8
  %12 = alloca i64, align 8
  %13 = alloca i64, align 8
  %14 = alloca i64, align 8
  %15 = alloca i64, align 8
  %16 = alloca i64, align 8
  %17 = alloca i32, align 4
  store i64 %0, ptr %8, align 8, !tbaa !12
  store ptr %1, ptr %9, align 8, !tbaa !7
  store ptr %2, ptr %10, align 8, !tbaa !43
  store ptr %3, ptr %11, align 8, !tbaa !43
  store i64 %4, ptr %12, align 8, !tbaa !12
  store i64 %5, ptr %13, align 8, !tbaa !12
  call void @llvm.lifetime.start.p0(i64 8, ptr %14) #17
  %18 = load ptr, ptr %9, align 8, !tbaa !7
  %19 = load ptr, ptr %10, align 8, !tbaa !43
  %20 = load ptr, ptr %19, align 8, !tbaa !7
  %21 = ptrtoint ptr %18 to i64
  %22 = ptrtoint ptr %20 to i64
  %23 = sub i64 %21, %22
  store i64 %23, ptr %14, align 8, !tbaa !12
  call void @llvm.lifetime.start.p0(i64 8, ptr %15) #17
  %24 = load i64, ptr %14, align 8, !tbaa !12
  %25 = load i64, ptr %12, align 8, !tbaa !12
  %26 = mul i64 %25, 2
  %27 = add i64 %24, %26
  store i64 %27, ptr %15, align 8, !tbaa !12
  call void @llvm.lifetime.start.p0(i64 8, ptr %16) #17
  %28 = load i64, ptr %8, align 8, !tbaa !12
  %29 = call i64 @rb_str_capacity(i64 noundef %28) #18
  store i64 %29, ptr %16, align 8, !tbaa !12
  br label %30

30:                                               ; preds = %34, %6
  %31 = load i64, ptr %16, align 8, !tbaa !12
  %32 = load i64, ptr %15, align 8, !tbaa !12
  %33 = icmp ult i64 %31, %32
  br i1 %33, label %34, label %37

34:                                               ; preds = %30
  %35 = load i64, ptr %16, align 8, !tbaa !12
  %36 = shl i64 %35, 1
  store i64 %36, ptr %16, align 8, !tbaa !12
  br label %30, !llvm.loop !45

37:                                               ; preds = %30
  %38 = load i64, ptr %16, align 8, !tbaa !12
  %39 = load i64, ptr %14, align 8, !tbaa !12
  %40 = icmp ult i64 %38, %39
  br i1 %40, label %45, label %41

41:                                               ; preds = %37
  %42 = load i64, ptr %16, align 8, !tbaa !12
  %43 = load i64, ptr %13, align 8, !tbaa !12
  %44 = icmp ugt i64 %42, %43
  br i1 %44, label %45, label %46

45:                                               ; preds = %41, %37
  store ptr null, ptr %7, align 8
  store i32 1, ptr %17, align 4
  br label %64

46:                                               ; preds = %41
  %47 = load i64, ptr %8, align 8, !tbaa !12
  %48 = load i64, ptr %14, align 8, !tbaa !12
  call void @rb_str_set_len(i64 noundef %47, i64 noundef %48)
  %49 = load i64, ptr %8, align 8, !tbaa !12
  %50 = load i64, ptr %16, align 8, !tbaa !12
  %51 = load i64, ptr %14, align 8, !tbaa !12
  %52 = sub i64 %50, %51
  call void @rb_str_modify_expand(i64 noundef %49, i64 noundef %52)
  %53 = load i64, ptr %8, align 8, !tbaa !12
  %54 = call ptr @RSTRING_PTR(i64 noundef %53)
  store ptr %54, ptr %9, align 8, !tbaa !7
  %55 = load ptr, ptr %9, align 8, !tbaa !7
  %56 = load i64, ptr %16, align 8, !tbaa !12
  %57 = getelementptr i8, ptr %55, i64 %56
  %58 = load ptr, ptr %11, align 8, !tbaa !43
  store ptr %57, ptr %58, align 8, !tbaa !7
  %59 = load ptr, ptr %9, align 8, !tbaa !7
  %60 = load ptr, ptr %10, align 8, !tbaa !43
  store ptr %59, ptr %60, align 8, !tbaa !7
  %61 = load i64, ptr %14, align 8, !tbaa !12
  %62 = load ptr, ptr %9, align 8, !tbaa !7
  %63 = getelementptr i8, ptr %62, i64 %61
  store ptr %63, ptr %9, align 8, !tbaa !7
  store ptr %63, ptr %7, align 8
  store i32 1, ptr %17, align 4
  br label %64

64:                                               ; preds = %46, %45
  call void @llvm.lifetime.end.p0(i64 8, ptr %16) #17
  call void @llvm.lifetime.end.p0(i64 8, ptr %15) #17
  call void @llvm.lifetime.end.p0(i64 8, ptr %14) #17
  %65 = load ptr, ptr %7, align 8
  ret ptr %65
}