; Function Attrs: nounwind sspstrong uwtable
define internal fastcc ptr @resize_buffer(i64 noundef %0, ptr noundef %1, ptr noundef nonnull captures(none) %2, ptr noundef nonnull writeonly captures(none) %3, i64 noundef %4, i64 noundef %5) unnamed_addr #0 {
  %7 = load ptr, ptr %2, align 8, !tbaa !17
  %8 = ptrtoint ptr %1 to i64
  %9 = ptrtoint ptr %7 to i64
  %10 = sub i64 %8, %9
  %11 = shl i64 %4, 1
  %12 = add i64 %10, %11
  %13 = tail call i64 @rb_str_capacity(i64 noundef %0) #13
  br label %14

14:                                               ; preds = %14, %6
  %.0 = phi i64 [ %13, %6 ], [ %16, %14 ]
  %15 = icmp ult i64 %.0, %12
  %16 = shl i64 %.0, 1
  br i1 %15, label %14, label %17, !llvm.loop !20

17:                                               ; preds = %14
  %18 = icmp ult i64 %.0, %10
  %19 = icmp ugt i64 %.0, %5
  %or.cond = or i1 %18, %19
  br i1 %or.cond, label %29, label %20

20:                                               ; preds = %17
  tail call void @rb_str_set_len(i64 noundef %0, i64 noundef %10) #12
  %21 = sub nuw i64 %.0, %10
  tail call void @rb_str_modify_expand(i64 noundef %0, i64 noundef %21) #12
  %22 = inttoptr i64 %0 to ptr
  %23 = load i64, ptr %22, align 8, !tbaa !7, !noalias !273
  %24 = and i64 %23, 8192
  %.not.i.i = icmp eq i64 %24, 0
  %25 = getelementptr inbounds nuw i8, ptr %22, i64 24
  br i1 %.not.i.i, label %RSTRING_PTR.exit, label %26

26:                                               ; preds = %20
  %.sroa.2.0.copyload.i = load ptr, ptr %25, align 8
  br label %RSTRING_PTR.exit

RSTRING_PTR.exit:                                 ; preds = %20, %26
  %.sroa.2.0.i = phi ptr [ %.sroa.2.0.copyload.i, %26 ], [ %25, %20 ]
  %27 = getelementptr i8, ptr %.sroa.2.0.i, i64 %.0
  store ptr %27, ptr %3, align 8, !tbaa !17
  store ptr %.sroa.2.0.i, ptr %2, align 8, !tbaa !17
  %28 = getelementptr i8, ptr %.sroa.2.0.i, i64 %10
  br label %29

29:                                               ; preds = %17, %RSTRING_PTR.exit
  %.025 = phi ptr [ %28, %RSTRING_PTR.exit ], [ null, %17 ]
  ret ptr %.025
}